target datalayout = "e-m:e-p270:32:32-p271:32:32-p272:64:64-i64:64-i128:128-f80:128-n8:16:32:64-S128"
target triple = "x86_64-pc-linux-gnu"

%struct.JfrSamplerParams = type { i64, i64, i64, i8 }
%class.JfrEventThrottler = type <{ %class.JfrAdaptiveSampler.base, [4 x i8], %struct.JfrSamplerParams, i64, i64, double, i32, i8, i8, [2 x i8] }>
%class.JfrAdaptiveSampler.base = type <{ ptr, %class.JfrPRNG, ptr, ptr, ptr, double, double, i64, i64, i32 }>
%class.JfrPRNG = type { i64 }
%class.JfrSpinlockHelper = type { ptr }
%class.JfrAdaptiveSampler = type <{ ptr, %class.JfrPRNG, ptr, ptr, ptr, double, double, i64, i64, i32, [4 x i8] }>

; Function Attrs: mustprogress nounwind uwtable
define linkonce_odr hidden void @_ZN17JfrSpinlockHelperD2Ev(ptr noundef nonnull align 8 dereferenceable(8) %0) unnamed_addr #1 comdat align 2 {
  %2 = alloca ptr, align 8
  store ptr %0, ptr %2, align 8
  %3 = load ptr, ptr %2, align 8
  %4 = getelementptr inbounds %class.JfrSpinlockHelper, ptr %3, i32 0, i32 0
  %5 = load ptr, ptr %4, align 8
  call void @_ZN6Thread11SpinReleaseEPVi(ptr noundef %5)
  ret void
}

; Function Attrs: mustprogress nounwind uwtable
define linkonce_odr hidden void @_ZN17JfrSpinlockHelperC2EPVi(ptr noundef nonnull align 8 dereferenceable(8) %0, ptr noundef %1) unnamed_addr #1 comdat align 2 {
  %3 = alloca ptr, align 8
  %4 = alloca ptr, align 8
  store ptr %0, ptr %3, align 8
  store ptr %1, ptr %4, align 8
  %5 = load ptr, ptr %3, align 8
  %6 = getelementptr inbounds %class.JfrSpinlockHelper, ptr %5, i32 0, i32 0
  %7 = load ptr, ptr %4, align 8
  store ptr %7, ptr %6, align 8
  %8 = getelementptr inbounds %class.JfrSpinlockHelper, ptr %5, i32 0, i32 0
  %9 = load ptr, ptr %8, align 8
  call void @_ZN6Thread11SpinAcquireEPViPKc(ptr noundef %9, ptr noundef null)
  ret void
}

; Function Attrs: mustprogress nounwind uwtable
define hidden void @_ZN17JfrEventThrottler9configureEll(ptr noundef nonnull align 8 dereferenceable(142) %0, i64 noundef %1, i64 noundef %2) #1 align 2 {
  %4 = alloca ptr, align 8
  %5 = alloca i64, align 8
  %6 = alloca i64, align 8
  %7 = alloca %class.JfrSpinlockHelper, align 8
  store ptr %0, ptr %4, align 8
  store i64 %1, ptr %5, align 8
  store i64 %2, ptr %6, align 8
  %8 = load ptr, ptr %4, align 8
  %9 = getelementptr inbounds %class.JfrAdaptiveSampler, ptr %8, i32 0, i32 9
  call void @_ZN17JfrSpinlockHelperC2EPVi(ptr noundef nonnull align 8 dereferenceable(8) %7, ptr noundef %9)
  %10 = load i64, ptr %5, align 8
  %11 = getelementptr inbounds %class.JfrEventThrottler, ptr %8, i32 0, i32 3
  store i64 %10, ptr %11, align 8
  %12 = load i64, ptr %6, align 8
  %13 = getelementptr inbounds %class.JfrEventThrottler, ptr %8, i32 0, i32 4
  store i64 %12, ptr %13, align 8
  %14 = getelementptr inbounds %class.JfrEventThrottler, ptr %8, i32 0, i32 8
  store i8 1, ptr %14, align 1
  call void @_ZN18JfrAdaptiveSampler11reconfigureEv(ptr noundef nonnull align 8 dereferenceable(76) %8)
  call void @_ZN17JfrSpinlockHelperD2Ev(ptr noundef nonnull align 8 dereferenceable(8) %7) #7
  ret void
}