; Function Attrs: mustprogress nounwind uwtable
define hidden void @_ZN17JfrEventThrottler9configureEll(ptr noundef nonnull align 8 dereferenceable(142) %0, i64 noundef %1, i64 noundef %2) local_unnamed_addr #0 align 2 {
  %4 = getelementptr inbounds i8, ptr %0, i64 72
  tail call void @_ZN6Thread11SpinAcquireEPViPKc(ptr noundef nonnull %4, ptr noundef null) #9
  %5 = getelementptr inbounds i8, ptr %0, i64 112
  store i64 %1, ptr %5, align 8
  %6 = getelementptr inbounds i8, ptr %0, i64 120
  store i64 %2, ptr %6, align 8
  %7 = getelementptr inbounds i8, ptr %0, i64 141
  store i8 1, ptr %7, align 1
  tail call void @_ZN18JfrAdaptiveSampler11reconfigureEv(ptr noundef nonnull align 8 dereferenceable(76) %0) #9
  tail call void @_ZN6Thread11SpinReleaseEPVi(ptr noundef nonnull %4) #9
  ret void
}